; Function Attrs: mustprogress uwtable
define noundef i32 @_ZNK6icu_7715ReplaceableGlue9getLengthEv(ptr noundef nonnull readonly align 8 captures(none) dereferenceable(24) %0) unnamed_addr #4 align 2 {
  %2 = getelementptr inbounds nuw i8, ptr %0, i64 16
  %3 = load ptr, ptr %2, align 8, !tbaa !14
  %4 = load ptr, ptr %3, align 8, !tbaa !15
  %5 = getelementptr inbounds nuw i8, ptr %0, i64 8
  %6 = load ptr, ptr %5, align 8, !tbaa !6
  %7 = tail call noundef i32 %4(ptr noundef %6)
  ret i32 %7
}